; Function Attrs: nounwind uwtable
define range(i32 -1, 1) i32 @H5O__dec_rc(ptr noundef %0) local_unnamed_addr #1 {
  %.not = icmp eq ptr %0, null
  br i1 %.not, label %2, label %6

2:                                                ; preds = %1
  %3 = load i64, ptr @H5E_ARGS_g, align 8
  %4 = load i64, ptr @H5E_BADVALUE_g, align 8
  %5 = tail call i32 (ptr, ptr, i32, i64, i64, ptr, ...) @H5E_printf_stack(ptr noundef nonnull @.str.4, ptr noundef nonnull @__func__.H5O__dec_rc, i32 noundef 2778, i64 noundef %3, i64 noundef %4, ptr noundef nonnull @.str.89) #11
  br label %18

6:                                                ; preds = %1
  %7 = getelementptr inbounds i8, ptr %0, i64 272
  %8 = load i64, ptr %7, align 8
  %9 = add i64 %8, -1
  store i64 %9, ptr %7, align 8
  %10 = icmp eq i64 %9, 0
  br i1 %10, label %11, label %18

11:                                               ; preds = %6
  %12 = tail call i32 @H5AC_unpin_entry(ptr noundef nonnull %0) #11
  %13 = icmp slt i32 %12, 0
  br i1 %13, label %14, label %18

14:                                               ; preds = %11
  %15 = load i64, ptr @H5E_OHDR_g, align 8
  %16 = load i64, ptr @H5E_CANTUNPIN_g, align 8
  %17 = tail call i32 (ptr, ptr, i32, i64, i64, ptr, ...) @H5E_printf_stack(ptr noundef nonnull @.str.4, ptr noundef nonnull @__func__.H5O__dec_rc, i32 noundef 2786, i64 noundef %15, i64 noundef %16, ptr noundef nonnull @.str.38) #11
  br label %18

18:                                               ; preds = %6, %11, %14, %2
  %.0 = phi i32 [ -1, %14 ], [ 0, %11 ], [ 0, %6 ], [ -1, %2 ]
  ret i32 %.0
}